target datalayout = "e-m:e-p270:32:32-p271:32:32-p272:64:64-i64:64-i128:128-f80:128-n8:16:32:64-S128"
target triple = "x86_64-pc-linux-gnu"

%struct.lv_area_t = type { i32, i32, i32, i32 }
%struct.lv_point_t = type { i32, i32 }
%struct.lv_event_list_t = type { %struct._lv_array_t, i8 }
%struct._lv_array_t = type { ptr, i32, i32, i32, i8 }
%struct._lv_obj_t = type { ptr, ptr, ptr, ptr, ptr, %struct.lv_area_t, i32, i16, i16 }
%struct._lv_obj_spec_attr_t = type { ptr, ptr, %struct.lv_event_list_t, %struct.lv_point_t, i32, i32, i16, i16 }

; Function Attrs: nounwind uwtable
define ptr @lv_indev_search_obj(ptr noundef %0, ptr noundef %1) #0 {
  %3 = alloca ptr, align 8
  %4 = alloca ptr, align 8
  %5 = alloca ptr, align 8
  %6 = alloca ptr, align 8
  %7 = alloca i32, align 4
  %8 = alloca %struct.lv_point_t, align 4
  %9 = alloca i8, align 1
  %10 = alloca %struct.lv_area_t, align 4
  %11 = alloca i32, align 4
  %12 = alloca i32, align 4
  %13 = alloca i32, align 4
  %14 = alloca ptr, align 8
  store ptr %0, ptr %4, align 8, !tbaa !131
  store ptr %1, ptr %5, align 8, !tbaa !35
  call void @llvm.lifetime.start.p0(i64 8, ptr %6) #6
  store ptr null, ptr %6, align 8, !tbaa !131
  %15 = load ptr, ptr %4, align 8, !tbaa !131
  %16 = call zeroext i1 @lv_obj_has_flag(ptr noundef %15, i32 noundef 1)
  br i1 %16, label %17, label %18

17:                                               ; preds = %2
  store ptr null, ptr %3, align 8
  store i32 1, ptr %7, align 4
  br label %77

18:                                               ; preds = %2
  call void @llvm.lifetime.start.p0(i64 8, ptr %8) #6
  %19 = load ptr, ptr %5, align 8, !tbaa !35
  call void @llvm.memcpy.p0.p0.i64(ptr align 4 %8, ptr align 4 %19, i64 8, i1 false), !tbaa.struct !137
  %20 = load ptr, ptr %4, align 8, !tbaa !131
  call void @lv_obj_transform_point(ptr noundef %20, ptr noundef %8, i32 noundef 2)
  call void @llvm.lifetime.start.p0(i64 1, ptr %9) #6
  %21 = load ptr, ptr %4, align 8, !tbaa !131
  %22 = call zeroext i1 @lv_obj_hit_test(ptr noundef %21, ptr noundef %8)
  %23 = zext i1 %22 to i8
  store i8 %23, ptr %9, align 1, !tbaa !75
  call void @llvm.lifetime.start.p0(i64 16, ptr %10) #6
  %24 = load ptr, ptr %4, align 8, !tbaa !131
  %25 = getelementptr inbounds nuw %struct._lv_obj_t, ptr %24, i32 0, i32 5
  call void @llvm.memcpy.p0.p0.i64(ptr align 4 %10, ptr align 8 %25, i64 16, i1 false), !tbaa.struct !138
  %26 = load ptr, ptr %4, align 8, !tbaa !131
  %27 = call zeroext i1 @lv_obj_has_flag(ptr noundef %26, i32 noundef 1048576)
  br i1 %27, label %28, label %33

28:                                               ; preds = %18
  call void @llvm.lifetime.start.p0(i64 4, ptr %11) #6
  %29 = load ptr, ptr %4, align 8, !tbaa !131
  %30 = call i32 @lv_obj_get_ext_draw_size(ptr noundef %29)
  store i32 %30, ptr %11, align 4, !tbaa !41
  %31 = load i32, ptr %11, align 4, !tbaa !41
  %32 = load i32, ptr %11, align 4, !tbaa !41
  call void @lv_area_increase(ptr noundef %10, i32 noundef %31, i32 noundef %32)
  call void @llvm.lifetime.end.p0(i64 4, ptr %11) #6
  br label %33

33:                                               ; preds = %28, %18
  %34 = call zeroext i1 @lv_area_is_point_on(ptr noundef %10, ptr noundef %8, i32 noundef 0)
  br i1 %34, label %35, label %70

35:                                               ; preds = %33
  call void @llvm.lifetime.start.p0(i64 4, ptr %12) #6
  call void @llvm.lifetime.start.p0(i64 4, ptr %13) #6
  %36 = load ptr, ptr %4, align 8, !tbaa !131
  %37 = call i32 @lv_obj_get_child_count(ptr noundef %36)
  store i32 %37, ptr %13, align 4, !tbaa !41
  %38 = load i32, ptr %13, align 4, !tbaa !41
  %39 = sub i32 %38, 1
  store i32 %39, ptr %12, align 4, !tbaa !41
  br label %40

40:                                               ; preds = %63, %35
  %41 = load i32, ptr %12, align 4, !tbaa !41
  %42 = icmp sge i32 %41, 0
  br i1 %42, label %43, label %66

43:                                               ; preds = %40
  call void @llvm.lifetime.start.p0(i64 8, ptr %14) #6
  %44 = load ptr, ptr %4, align 8, !tbaa !131
  %45 = getelementptr inbounds nuw %struct._lv_obj_t, ptr %44, i32 0, i32 2
  %46 = load ptr, ptr %45, align 8, !tbaa !139
  %47 = getelementptr inbounds nuw %struct._lv_obj_spec_attr_t, ptr %46, i32 0, i32 0
  %48 = load ptr, ptr %47, align 8, !tbaa !144
  %49 = load i32, ptr %12, align 4, !tbaa !41
  %50 = sext i32 %49 to i64
  %51 = getelementptr inbounds ptr, ptr %48, i64 %50
  %52 = load ptr, ptr %51, align 8, !tbaa !131
  store ptr %52, ptr %14, align 8, !tbaa !131
  %53 = load ptr, ptr %14, align 8, !tbaa !131
  %54 = call ptr @lv_indev_search_obj(ptr noundef %53, ptr noundef %8)
  store ptr %54, ptr %6, align 8, !tbaa !131
  %55 = load ptr, ptr %6, align 8, !tbaa !131
  %56 = icmp ne ptr %55, null
  br i1 %56, label %57, label %59

57:                                               ; preds = %43
  %58 = load ptr, ptr %6, align 8, !tbaa !131
  store ptr %58, ptr %3, align 8
  store i32 1, ptr %7, align 4
  br label %60

59:                                               ; preds = %43
  store i32 0, ptr %7, align 4
  br label %60

60:                                               ; preds = %59, %57
  call void @llvm.lifetime.end.p0(i64 8, ptr %14) #6
  %61 = load i32, ptr %7, align 4
  switch i32 %61, label %67 [
    i32 0, label %62
  ]

62:                                               ; preds = %60
  br label %63

63:                                               ; preds = %62
  %64 = load i32, ptr %12, align 4, !tbaa !41
  %65 = add nsw i32 %64, -1
  store i32 %65, ptr %12, align 4, !tbaa !41
  br label %40, !llvm.loop !146

66:                                               ; preds = %40
  store i32 0, ptr %7, align 4
  br label %67

67:                                               ; preds = %66, %60
  call void @llvm.lifetime.end.p0(i64 4, ptr %13) #6
  call void @llvm.lifetime.end.p0(i64 4, ptr %12) #6
  %68 = load i32, ptr %7, align 4
  switch i32 %68, label %76 [
    i32 0, label %69
  ]

69:                                               ; preds = %67
  br label %70

70:                                               ; preds = %69, %33
  %71 = load i8, ptr %9, align 1, !tbaa !75, !range !73, !noundef !74
  %72 = trunc i8 %71 to i1
  br i1 %72, label %73, label %75

73:                                               ; preds = %70
  %74 = load ptr, ptr %4, align 8, !tbaa !131
  store ptr %74, ptr %3, align 8
  store i32 1, ptr %7, align 4
  br label %76

75:                                               ; preds = %70
  store ptr null, ptr %3, align 8
  store i32 1, ptr %7, align 4
  br label %76

76:                                               ; preds = %75, %73, %67
  call void @llvm.lifetime.end.p0(i64 16, ptr %10) #6
  call void @llvm.lifetime.end.p0(i64 1, ptr %9) #6
  call void @llvm.lifetime.end.p0(i64 8, ptr %8) #6
  br label %77

77:                                               ; preds = %76, %17
  call void @llvm.lifetime.end.p0(i64 8, ptr %6) #6
  %78 = load ptr, ptr %3, align 8
  ret ptr %78
}