; Function Attrs: nounwind uwtable
define ptr @lv_indev_search_obj(ptr noundef %0, ptr noundef readonly captures(none) %1) local_unnamed_addr #0 {
  %3 = alloca %struct.lv_point_t, align 8
  %4 = alloca %struct.lv_area_t, align 4
  %5 = tail call zeroext i1 @lv_obj_has_flag(ptr noundef %0, i32 noundef 1) #11
  br i1 %5, label %28, label %6

6:                                                ; preds = %2
  call void @llvm.lifetime.start.p0(i64 8, ptr nonnull %3) #11
  %7 = load i64, ptr %1, align 4
  store i64 %7, ptr %3, align 8
  call void @lv_obj_transform_point(ptr noundef %0, ptr noundef nonnull %3, i32 noundef 2) #11
  %8 = call zeroext i1 @lv_obj_hit_test(ptr noundef %0, ptr noundef nonnull %3) #11
  call void @llvm.lifetime.start.p0(i64 16, ptr nonnull %4) #11
  %9 = getelementptr inbounds nuw i8, ptr %0, i64 40
  call void @llvm.memcpy.p0.p0.i64(ptr noundef nonnull align 4 dereferenceable(16) %4, ptr noundef nonnull align 8 dereferenceable(16) %9, i64 16, i1 false), !tbaa.struct !126
  %10 = call zeroext i1 @lv_obj_has_flag(ptr noundef %0, i32 noundef 1048576) #11
  br i1 %10, label %11, label %13

11:                                               ; preds = %6
  %12 = call i32 @lv_obj_get_ext_draw_size(ptr noundef nonnull %0) #11
  call void @lv_area_increase(ptr noundef nonnull %4, i32 noundef %12, i32 noundef %12) #11
  br label %13

13:                                               ; preds = %11, %6
  %14 = call zeroext i1 @lv_area_is_point_on(ptr noundef nonnull %4, ptr noundef nonnull %3, i32 noundef 0) #11
  br i1 %14, label %15, label %.thread

15:                                               ; preds = %13
  %16 = call i32 @lv_obj_get_child_count(ptr noundef nonnull %0) #11
  %17 = getelementptr inbounds nuw i8, ptr %0, i64 16
  %18 = zext i32 %16 to i64
  br label %19

19:                                               ; preds = %21, %15
  %indvars.iv = phi i64 [ %indvars.iv.next, %21 ], [ %18, %15 ]
  %indvars.iv.next = add nsw i64 %indvars.iv, -1
  %20 = and i64 %indvars.iv.next, 2147483648
  %.not29 = icmp eq i64 %20, 0
  br i1 %.not29, label %21, label %.thread

21:                                               ; preds = %19
  %22 = load ptr, ptr %17, align 8, !tbaa !127
  %23 = load ptr, ptr %22, align 8, !tbaa !132
  %24 = and i64 %indvars.iv.next, 2147483647
  %25 = getelementptr inbounds nuw ptr, ptr %23, i64 %24
  %26 = load ptr, ptr %25, align 8, !tbaa !134
  %27 = call ptr @lv_indev_search_obj(ptr noundef %26, ptr noundef nonnull %3)
  %.not = icmp eq ptr %27, null
  br i1 %.not, label %19, label %.loopexit, !llvm.loop !135

.thread:                                          ; preds = %19, %13
  %. = select i1 %8, ptr %0, ptr null
  br label %.loopexit

.loopexit:                                        ; preds = %21, %.thread
  %.4 = phi ptr [ %., %.thread ], [ %27, %21 ]
  call void @llvm.lifetime.end.p0(i64 16, ptr nonnull %4) #11
  call void @llvm.lifetime.end.p0(i64 8, ptr nonnull %3) #11
  br label %28

28:                                               ; preds = %2, %.loopexit
  %.0 = phi ptr [ %.4, %.loopexit ], [ null, %2 ]
  ret ptr %.0
}